target datalayout = "e-m:e-p270:32:32-p271:32:32-p272:64:64-i64:64-i128:128-f80:128-n8:16:32:64-S128"
target triple = "x86_64-pc-linux-gnu"

%struct.archive_read = type { %struct.archive, ptr, i32, i64, i64, %struct.archive_read_client, [16 x %struct.archive_read_filter_bidder], ptr, i32, i64, i32, i32, [16 x %struct.archive_format_descriptor], ptr, ptr, ptr, %struct.anon }
%struct.archive = type { i32, i32, ptr, i32, ptr, i32, i32, ptr, %struct.archive_string, ptr, i32, i32, ptr, ptr, i64, i64, i64, i8, i64 }
%struct.archive_string = type { ptr, i64, i64 }
%struct.archive_read_client = type { ptr, ptr, ptr, ptr, ptr, ptr, i32, i32, i64, ptr }
%struct.archive_read_filter_bidder = type { ptr, ptr, ptr }
%struct.archive_format_descriptor = type { ptr, ptr, ptr, ptr, ptr, ptr, ptr, ptr, ptr, ptr, ptr }
%struct.anon = type { ptr, ptr, i32, ptr, ptr }
%struct.archive_read_data_node = type { i64, i64, ptr }
%struct.archive_read_filter = type { i64, ptr, ptr, ptr, ptr, ptr, ptr, i32, i32, i32, ptr, i64, ptr, i64, ptr, i64, ptr, i64, i8, i8, i8 }

; Function Attrs: nounwind uwtable
define internal i32 @client_open_proxy(ptr noundef %0) #0 {
  %2 = alloca ptr, align 8
  %3 = alloca i32, align 4
  store ptr %0, ptr %2, align 8, !tbaa !45
  call void @llvm.lifetime.start.p0(i64 4, ptr %3) #11
  store i32 0, ptr %3, align 4, !tbaa !38
  %4 = load ptr, ptr %2, align 8, !tbaa !45
  %5 = getelementptr inbounds nuw %struct.archive_read_filter, ptr %4, i32 0, i32 3
  %6 = load ptr, ptr %5, align 8, !tbaa !51
  %7 = getelementptr inbounds nuw %struct.archive_read, ptr %6, i32 0, i32 5
  %8 = getelementptr inbounds nuw %struct.archive_read_client, ptr %7, i32 0, i32 0
  %9 = load ptr, ptr %8, align 8, !tbaa !39
  %10 = icmp ne ptr %9, null
  br i1 %10, label %11, label %25

11:                                               ; preds = %1
  %12 = load ptr, ptr %2, align 8, !tbaa !45
  %13 = getelementptr inbounds nuw %struct.archive_read_filter, ptr %12, i32 0, i32 3
  %14 = load ptr, ptr %13, align 8, !tbaa !51
  %15 = getelementptr inbounds nuw %struct.archive_read, ptr %14, i32 0, i32 5
  %16 = getelementptr inbounds nuw %struct.archive_read_client, ptr %15, i32 0, i32 0
  %17 = load ptr, ptr %16, align 8, !tbaa !39
  %18 = load ptr, ptr %2, align 8, !tbaa !45
  %19 = getelementptr inbounds nuw %struct.archive_read_filter, ptr %18, i32 0, i32 3
  %20 = load ptr, ptr %19, align 8, !tbaa !51
  %21 = load ptr, ptr %2, align 8, !tbaa !45
  %22 = getelementptr inbounds nuw %struct.archive_read_filter, ptr %21, i32 0, i32 5
  %23 = load ptr, ptr %22, align 8, !tbaa !52
  %24 = call i32 %17(ptr noundef %20, ptr noundef %23)
  store i32 %24, ptr %3, align 4, !tbaa !38
  br label %25

25:                                               ; preds = %11, %1
  %26 = load i32, ptr %3, align 4, !tbaa !38
  call void @llvm.lifetime.end.p0(i64 4, ptr %3) #11
  ret i32 %26
}

; Function Attrs: nounwind uwtable
define internal i32 @client_switch_proxy(ptr noundef %0, i32 noundef %1) #0 {
  %3 = alloca i32, align 4
  %4 = alloca ptr, align 8
  %5 = alloca i32, align 4
  %6 = alloca i32, align 4
  %7 = alloca i32, align 4
  %8 = alloca ptr, align 8
  %9 = alloca i32, align 4
  store ptr %0, ptr %4, align 8, !tbaa !45
  store i32 %1, ptr %5, align 4, !tbaa !38
  call void @llvm.lifetime.start.p0(i64 4, ptr %6) #11
  store i32 0, ptr %6, align 4, !tbaa !38
  call void @llvm.lifetime.start.p0(i64 4, ptr %7) #11
  store i32 0, ptr %7, align 4, !tbaa !38
  call void @llvm.lifetime.start.p0(i64 8, ptr %8) #11
  store ptr null, ptr %8, align 8, !tbaa !37
  %10 = load ptr, ptr %4, align 8, !tbaa !45
  %11 = getelementptr inbounds nuw %struct.archive_read_filter, ptr %10, i32 0, i32 3
  %12 = load ptr, ptr %11, align 8, !tbaa !51
  %13 = getelementptr inbounds nuw %struct.archive_read, ptr %12, i32 0, i32 5
  %14 = getelementptr inbounds nuw %struct.archive_read_client, ptr %13, i32 0, i32 7
  %15 = load i32, ptr %14, align 4, !tbaa !89
  %16 = load i32, ptr %5, align 4, !tbaa !38
  %17 = icmp eq i32 %15, %16
  br i1 %17, label %18, label %19

18:                                               ; preds = %2
  store i32 0, ptr %3, align 4
  store i32 1, ptr %9, align 4
  br label %105

19:                                               ; preds = %2
  %20 = load i32, ptr %5, align 4, !tbaa !38
  %21 = load ptr, ptr %4, align 8, !tbaa !45
  %22 = getelementptr inbounds nuw %struct.archive_read_filter, ptr %21, i32 0, i32 3
  %23 = load ptr, ptr %22, align 8, !tbaa !51
  %24 = getelementptr inbounds nuw %struct.archive_read, ptr %23, i32 0, i32 5
  %25 = getelementptr inbounds nuw %struct.archive_read_client, ptr %24, i32 0, i32 7
  store i32 %20, ptr %25, align 4, !tbaa !89
  %26 = load ptr, ptr %4, align 8, !tbaa !45
  %27 = getelementptr inbounds nuw %struct.archive_read_filter, ptr %26, i32 0, i32 3
  %28 = load ptr, ptr %27, align 8, !tbaa !51
  %29 = getelementptr inbounds nuw %struct.archive_read, ptr %28, i32 0, i32 5
  %30 = getelementptr inbounds nuw %struct.archive_read_client, ptr %29, i32 0, i32 9
  %31 = load ptr, ptr %30, align 8, !tbaa !42
  %32 = load ptr, ptr %4, align 8, !tbaa !45
  %33 = getelementptr inbounds nuw %struct.archive_read_filter, ptr %32, i32 0, i32 3
  %34 = load ptr, ptr %33, align 8, !tbaa !51
  %35 = getelementptr inbounds nuw %struct.archive_read, ptr %34, i32 0, i32 5
  %36 = getelementptr inbounds nuw %struct.archive_read_client, ptr %35, i32 0, i32 7
  %37 = load i32, ptr %36, align 4, !tbaa !89
  %38 = zext i32 %37 to i64
  %39 = getelementptr inbounds nuw %struct.archive_read_data_node, ptr %31, i64 %38
  %40 = getelementptr inbounds nuw %struct.archive_read_data_node, ptr %39, i32 0, i32 2
  %41 = load ptr, ptr %40, align 8, !tbaa !43
  store ptr %41, ptr %8, align 8, !tbaa !37
  %42 = load ptr, ptr %4, align 8, !tbaa !45
  %43 = getelementptr inbounds nuw %struct.archive_read_filter, ptr %42, i32 0, i32 3
  %44 = load ptr, ptr %43, align 8, !tbaa !51
  %45 = getelementptr inbounds nuw %struct.archive_read, ptr %44, i32 0, i32 5
  %46 = getelementptr inbounds nuw %struct.archive_read_client, ptr %45, i32 0, i32 5
  %47 = load ptr, ptr %46, align 8, !tbaa !66
  %48 = icmp ne ptr %47, null
  br i1 %48, label %49, label %67

49:                                               ; preds = %19
  %50 = load ptr, ptr %4, align 8, !tbaa !45
  %51 = getelementptr inbounds nuw %struct.archive_read_filter, ptr %50, i32 0, i32 3
  %52 = load ptr, ptr %51, align 8, !tbaa !51
  %53 = getelementptr inbounds nuw %struct.archive_read, ptr %52, i32 0, i32 5
  %54 = getelementptr inbounds nuw %struct.archive_read_client, ptr %53, i32 0, i32 5
  %55 = load ptr, ptr %54, align 8, !tbaa !66
  %56 = load ptr, ptr %4, align 8, !tbaa !45
  %57 = getelementptr inbounds nuw %struct.archive_read_filter, ptr %56, i32 0, i32 3
  %58 = load ptr, ptr %57, align 8, !tbaa !51
  %59 = load ptr, ptr %4, align 8, !tbaa !45
  %60 = getelementptr inbounds nuw %struct.archive_read_filter, ptr %59, i32 0, i32 5
  %61 = load ptr, ptr %60, align 8, !tbaa !52
  %62 = load ptr, ptr %8, align 8, !tbaa !37
  %63 = call i32 %55(ptr noundef %58, ptr noundef %61, ptr noundef %62)
  store i32 %63, ptr %7, align 4, !tbaa !38
  store i32 %63, ptr %6, align 4, !tbaa !38
  %64 = load ptr, ptr %8, align 8, !tbaa !37
  %65 = load ptr, ptr %4, align 8, !tbaa !45
  %66 = getelementptr inbounds nuw %struct.archive_read_filter, ptr %65, i32 0, i32 5
  store ptr %64, ptr %66, align 8, !tbaa !52
  br label %95

67:                                               ; preds = %19
  %68 = load ptr, ptr %4, align 8, !tbaa !45
  %69 = getelementptr inbounds nuw %struct.archive_read_filter, ptr %68, i32 0, i32 3
  %70 = load ptr, ptr %69, align 8, !tbaa !51
  %71 = getelementptr inbounds nuw %struct.archive_read, ptr %70, i32 0, i32 5
  %72 = getelementptr inbounds nuw %struct.archive_read_client, ptr %71, i32 0, i32 4
  %73 = load ptr, ptr %72, align 8, !tbaa !41
  %74 = icmp ne ptr %73, null
  br i1 %74, label %75, label %89

75:                                               ; preds = %67
  %76 = load ptr, ptr %4, align 8, !tbaa !45
  %77 = getelementptr inbounds nuw %struct.archive_read_filter, ptr %76, i32 0, i32 3
  %78 = load ptr, ptr %77, align 8, !tbaa !51
  %79 = getelementptr inbounds nuw %struct.archive_read, ptr %78, i32 0, i32 5
  %80 = getelementptr inbounds nuw %struct.archive_read_client, ptr %79, i32 0, i32 4
  %81 = load ptr, ptr %80, align 8, !tbaa !41
  %82 = load ptr, ptr %4, align 8, !tbaa !45
  %83 = getelementptr inbounds nuw %struct.archive_read_filter, ptr %82, i32 0, i32 3
  %84 = load ptr, ptr %83, align 8, !tbaa !51
  %85 = load ptr, ptr %4, align 8, !tbaa !45
  %86 = getelementptr inbounds nuw %struct.archive_read_filter, ptr %85, i32 0, i32 5
  %87 = load ptr, ptr %86, align 8, !tbaa !52
  %88 = call i32 %81(ptr noundef %84, ptr noundef %87)
  store i32 %88, ptr %6, align 4, !tbaa !38
  br label %89

89:                                               ; preds = %75, %67
  %90 = load ptr, ptr %8, align 8, !tbaa !37
  %91 = load ptr, ptr %4, align 8, !tbaa !45
  %92 = getelementptr inbounds nuw %struct.archive_read_filter, ptr %91, i32 0, i32 5
  store ptr %90, ptr %92, align 8, !tbaa !52
  %93 = load ptr, ptr %4, align 8, !tbaa !45
  %94 = call i32 @client_open_proxy(ptr noundef %93)
  store i32 %94, ptr %7, align 4, !tbaa !38
  br label %95

95:                                               ; preds = %89, %49
  %96 = load i32, ptr %6, align 4, !tbaa !38
  %97 = load i32, ptr %7, align 4, !tbaa !38
  %98 = icmp slt i32 %96, %97
  br i1 %98, label %99, label %101

99:                                               ; preds = %95
  %100 = load i32, ptr %6, align 4, !tbaa !38
  br label %103

101:                                              ; preds = %95
  %102 = load i32, ptr %7, align 4, !tbaa !38
  br label %103

103:                                              ; preds = %101, %99
  %104 = phi i32 [ %100, %99 ], [ %102, %101 ]
  store i32 %104, ptr %3, align 4
  store i32 1, ptr %9, align 4
  br label %105

105:                                              ; preds = %103, %18
  call void @llvm.lifetime.end.p0(i64 8, ptr %8) #11
  call void @llvm.lifetime.end.p0(i64 4, ptr %7) #11
  call void @llvm.lifetime.end.p0(i64 4, ptr %6) #11
  %106 = load i32, ptr %3, align 4
  ret i32 %106
}