; Function Attrs: nounwind uwtable
define internal fastcc i32 @client_switch_proxy(ptr noundef captures(none) %0, i32 noundef %1) unnamed_addr #0 {
  %3 = getelementptr inbounds nuw i8, ptr %0, i64 24
  %4 = load ptr, ptr %3, align 8, !tbaa !41
  %5 = getelementptr inbounds nuw i8, ptr %4, i64 228
  %6 = load i32, ptr %5, align 4, !tbaa !78
  %7 = icmp eq i32 %6, %1
  br i1 %7, label %35, label %8

8:                                                ; preds = %2
  store i32 %1, ptr %5, align 4, !tbaa !78
  %9 = getelementptr inbounds nuw i8, ptr %4, i64 240
  %10 = load ptr, ptr %9, align 8, !tbaa !36
  %11 = zext i32 %1 to i64
  %12 = getelementptr inbounds nuw %struct.archive_read_data_node, ptr %10, i64 %11, i32 2
  %13 = load ptr, ptr %12, align 8, !tbaa !37
  %14 = getelementptr inbounds nuw i8, ptr %4, i64 216
  %15 = load ptr, ptr %14, align 8, !tbaa !79
  %.not = icmp eq ptr %15, null
  br i1 %.not, label %20, label %16

16:                                               ; preds = %8
  %17 = getelementptr inbounds nuw i8, ptr %0, i64 40
  %18 = load ptr, ptr %17, align 8, !tbaa !46
  %19 = tail call i32 %15(ptr noundef nonnull %4, ptr noundef %18, ptr noundef %13) #15
  store ptr %13, ptr %17, align 8, !tbaa !46
  br label %client_open_proxy.exit

20:                                               ; preds = %8
  %21 = getelementptr inbounds nuw i8, ptr %4, i64 208
  %22 = load ptr, ptr %21, align 8, !tbaa !34
  %.not29 = icmp eq ptr %22, null
  br i1 %.not29, label %27, label %23

23:                                               ; preds = %20
  %24 = getelementptr inbounds nuw i8, ptr %0, i64 40
  %25 = load ptr, ptr %24, align 8, !tbaa !46
  %26 = tail call i32 %22(ptr noundef nonnull %4, ptr noundef %25) #15
  %.pre = load ptr, ptr %3, align 8, !tbaa !41
  br label %27

27:                                               ; preds = %23, %20
  %28 = phi ptr [ %.pre, %23 ], [ %4, %20 ]
  %.1 = phi i32 [ %26, %23 ], [ 0, %20 ]
  %29 = getelementptr inbounds nuw i8, ptr %0, i64 40
  store ptr %13, ptr %29, align 8, !tbaa !46
  %30 = getelementptr inbounds nuw i8, ptr %28, i64 176
  %31 = load ptr, ptr %30, align 8, !tbaa !32
  %.not.i = icmp eq ptr %31, null
  br i1 %.not.i, label %client_open_proxy.exit, label %32

32:                                               ; preds = %27
  %33 = tail call i32 %31(ptr noundef nonnull %28, ptr noundef %13) #15
  br label %client_open_proxy.exit

client_open_proxy.exit:                           ; preds = %32, %27, %16
  %.024 = phi i32 [ %19, %16 ], [ %.1, %27 ], [ %.1, %32 ]
  %.0 = phi i32 [ %19, %16 ], [ 0, %27 ], [ %33, %32 ]
  %34 = tail call i32 @llvm.smin.i32(i32 %.024, i32 %.0)
  br label %35

35:                                               ; preds = %2, %client_open_proxy.exit
  %.025 = phi i32 [ %34, %client_open_proxy.exit ], [ 0, %2 ]
  ret i32 %.025
}